target datalayout = "e-m:e-p270:32:32-p271:32:32-p272:64:64-i64:64-i128:128-f80:128-n8:16:32:64-S128"
target triple = "x86_64-unknown-linux-gnu"

%struct.VhostDevConfigOps = type { ptr }
%struct.VhostUserGPU = type { %struct.VirtIOGPUBase, ptr, i32, %struct.CharBackend, [16 x %struct.QemuDmaBuf], i8 }
%struct.VirtIOGPUBase = type { %struct.VirtIODevice, ptr, %struct.virtio_gpu_base_conf, %struct.virtio_gpu_config, ptr, i32, i32, %struct.MemoryRegion, [16 x %struct.virtio_gpu_scanout], i32, [16 x %struct.virtio_gpu_requested_state] }
%struct.VirtIODevice = type { %struct.DeviceState, ptr, i8, i8, i16, i64, i64, i64, i64, ptr, i16, i32, i32, ptr, %struct.MemoryListener, i16, i8, i8, i8, i8, i8, i8, i8, i8, i8, ptr, ptr, i8, i8, ptr, ptr, %union.anon.1, %struct.EventNotifier, i8 }
%struct.DeviceState = type { %struct.Object, ptr, ptr, i8, i8, i64, ptr, i32, i8, ptr, %struct.NamedGPIOListHead, %struct.NamedClockListHead, %struct.BusStateHead, i32, i32, i32, %struct.ResettableState, ptr, %struct.MemReentrancyGuard }
%struct.Object = type { ptr, ptr, ptr, i32, ptr }
%struct.NamedGPIOListHead = type { ptr }
%struct.NamedClockListHead = type { ptr }
%struct.BusStateHead = type { ptr }
%struct.ResettableState = type { i32, i8, i8 }
%struct.MemReentrancyGuard = type { i8 }
%struct.MemoryListener = type { ptr, ptr, ptr, ptr, ptr, ptr, ptr, ptr, ptr, ptr, ptr, ptr, ptr, ptr, ptr, ptr, ptr, i32, ptr, ptr, %union.anon, %union.anon.0 }
%union.anon = type { %struct.QTailQLink }
%struct.QTailQLink = type { ptr, ptr }
%union.anon.0 = type { %struct.QTailQLink }
%union.anon.1 = type { %struct.QTailQLink }
%struct.EventNotifier = type { i32, i32, i8 }
%struct.virtio_gpu_base_conf = type { i32, i32, i32, i32, i64 }
%struct.virtio_gpu_config = type { i32, i32, i32, i32 }
%struct.MemoryRegion = type { %struct.Object, i8, i8, i8, i8, i8, i8, i8, i8, i8, i8, ptr, ptr, ptr, ptr, ptr, ptr, i32, i128, i64, ptr, i64, i8, i8, i8, i8, i8, ptr, i64, i32, %union.anon.2, %union.anon.3, %union.anon.4, ptr, i32, ptr, ptr, i8 }
%union.anon.2 = type { %struct.QTailQLink }
%union.anon.3 = type { %struct.QTailQLink }
%union.anon.4 = type { %struct.QTailQLink }
%struct.virtio_gpu_scanout = type { ptr, ptr, i32, i32, i32, i32, i32, i32, %struct.virtio_gpu_update_cursor, ptr }
%struct.virtio_gpu_update_cursor = type { %struct.virtio_gpu_ctrl_hdr, %struct.virtio_gpu_cursor_pos, i32, i32, i32, i32 }
%struct.virtio_gpu_ctrl_hdr = type { i32, i32, i64, i32, i8, [3 x i8] }
%struct.virtio_gpu_cursor_pos = type { i32, i32, i32, i32 }
%struct.virtio_gpu_requested_state = type { i16, i16, i32, i32, i32, i32, i32 }
%struct.CharBackend = type { ptr, ptr, ptr, ptr, ptr, ptr, i32, i32 }
%struct.QemuDmaBuf = type { i32, i32, i32, i32, i32, i64, i32, i32, i32, i32, i32, i8, ptr, i32, i8, i8 }
%struct.VhostUserBackend = type { %struct.Object, ptr, %struct.CharBackend, %struct.VhostUserState, %struct.vhost_dev, ptr, i8, i8 }
%struct.VhostUserState = type { ptr, ptr, i32, i8 }
%struct.vhost_dev = type { ptr, %struct.MemoryListener, %struct.MemoryListener, ptr, i32, ptr, i32, ptr, ptr, i32, i32, i32, i32, i64, i64, i64, i64, i64, i64, i8, i8, i64, ptr, ptr, ptr, ptr, %struct.anon, %struct.anon.7, %struct.IOMMUNotifier, ptr }
%struct.anon = type { ptr, ptr }
%struct.anon.7 = type { ptr }
%struct.IOMMUNotifier = type { ptr, i32, i64, i64, i32, %struct.anon.8 }
%struct.anon.8 = type { ptr, ptr }

@.str = private unnamed_addr constant [15 x i8] c"vhost-user-gpu\00", align 1
@.str.4 = private unnamed_addr constant [109 x i8] c"/home/dtcxzyw/WorkSpace/Projects/compilers/llvm-opt-benchmark/bench/qemu/qemu/include/hw/virtio/virtio-gpu.h\00", align 1
@__func__.VHOST_USER_GPU = private unnamed_addr constant [15 x i8] c"VHOST_USER_GPU\00", align 1
@.str.8 = private unnamed_addr constant [14 x i8] c"virtio-device\00", align 1
@.str.9 = private unnamed_addr constant [105 x i8] c"/home/dtcxzyw/WorkSpace/Projects/compilers/llvm-opt-benchmark/bench/qemu/qemu/include/hw/virtio/virtio.h\00", align 1
@config_ops = internal constant %struct.VhostDevConfigOps { ptr @vhost_user_gpu_config_change }, align 8
@.str.18 = private unnamed_addr constant [51 x i8] c"EDID requested but the backend doesn't support it.\00", align 1
@__func__.VIRTIO_DEVICE = private unnamed_addr constant [14 x i8] c"VIRTIO_DEVICE\00", align 1
@.str.20 = private unnamed_addr constant [10 x i8] c"fbit < 64\00", align 1
@__PRETTY_FUNCTION__.virtio_has_feature = private unnamed_addr constant [49 x i8] c"_Bool virtio_has_feature(uint64_t, unsigned int)\00", align 1

; Function Attrs: nounwind sspstrong uwtable
define internal zeroext i1 @virtio_has_feature(i64 noundef %features, i32 noundef %fbit) #0 {
entry:
  %features.addr = alloca i64, align 8
  %fbit.addr = alloca i32, align 4
  store i64 %features, ptr %features.addr, align 8
  store i32 %fbit, ptr %fbit.addr, align 4
  %0 = load i32, ptr %fbit.addr, align 4
  %cmp = icmp ult i32 %0, 64
  br i1 %cmp, label %if.then, label %if.else

if.then:                                          ; preds = %entry
  br label %if.end

if.else:                                          ; preds = %entry
  call void @__assert_fail(ptr noundef @.str.20, ptr noundef @.str.9, i32 noundef 422, ptr noundef @__PRETTY_FUNCTION__.virtio_has_feature) #9
  unreachable

if.end:                                           ; preds = %if.then
  %1 = load i64, ptr %features.addr, align 8
  %2 = load i32, ptr %fbit.addr, align 4
  %sh_prom = zext i32 %2 to i64
  %shl = shl i64 1, %sh_prom
  %and = and i64 %1, %shl
  %tobool = icmp ne i64 %and, 0
  %lnot = xor i1 %tobool, true
  %lnot1 = xor i1 %lnot, true
  ret i1 %lnot1
}

; Function Attrs: nounwind sspstrong uwtable
define internal ptr @VIRTIO_DEVICE(ptr noundef %obj) #0 {
entry:
  %obj.addr = alloca ptr, align 8
  store ptr %obj, ptr %obj.addr, align 8
  %0 = load ptr, ptr %obj.addr, align 8
  %call = call ptr @object_dynamic_cast_assert(ptr noundef %0, ptr noundef @.str.8, ptr noundef @.str.9, i32 noundef 85, ptr noundef @__func__.VIRTIO_DEVICE)
  ret ptr %call
}

; Function Attrs: nounwind sspstrong uwtable
define internal ptr @VHOST_USER_GPU(ptr noundef %obj) #0 {
entry:
  %obj.addr = alloca ptr, align 8
  store ptr %obj, ptr %obj.addr, align 8
  %0 = load ptr, ptr %obj.addr, align 8
  %call = call ptr @object_dynamic_cast_assert(ptr noundef %0, ptr noundef @.str, ptr noundef @.str.4, i32 noundef 39, ptr noundef @__func__.VHOST_USER_GPU)
  ret ptr %call
}

; Function Attrs: nounwind sspstrong uwtable
define internal void @vhost_user_gpu_device_realize(ptr noundef %qdev, ptr noundef %errp) #0 {
entry:
  %qdev.addr = alloca ptr, align 8
  %errp.addr = alloca ptr, align 8
  %g = alloca ptr, align 8
  %vdev = alloca ptr, align 8
  store ptr %qdev, ptr %qdev.addr, align 8
  store ptr %errp, ptr %errp.addr, align 8
  %0 = load ptr, ptr %qdev.addr, align 8
  %call = call ptr @VHOST_USER_GPU(ptr noundef %0)
  store ptr %call, ptr %g, align 8
  %1 = load ptr, ptr %g, align 8
  %call1 = call ptr @VIRTIO_DEVICE(ptr noundef %1)
  store ptr %call1, ptr %vdev, align 8
  %2 = load ptr, ptr %g, align 8
  %vhost = getelementptr inbounds %struct.VhostUserGPU, ptr %2, i32 0, i32 1
  %3 = load ptr, ptr %vhost, align 16
  %dev = getelementptr inbounds %struct.VhostUserBackend, ptr %3, i32 0, i32 4
  call void @vhost_dev_set_config_notifier(ptr noundef %dev, ptr noundef @config_ops)
  %4 = load ptr, ptr %g, align 8
  %vhost2 = getelementptr inbounds %struct.VhostUserGPU, ptr %4, i32 0, i32 1
  %5 = load ptr, ptr %vhost2, align 16
  %6 = load ptr, ptr %vdev, align 8
  %7 = load ptr, ptr %errp.addr, align 8
  %call3 = call i32 @vhost_user_backend_dev_init(ptr noundef %5, ptr noundef %6, i32 noundef 2, ptr noundef %7)
  %cmp = icmp slt i32 %call3, 0
  br i1 %cmp, label %if.then, label %if.end

if.then:                                          ; preds = %entry
  br label %return

if.end:                                           ; preds = %entry
  %8 = load ptr, ptr %g, align 8
  %parent_obj = getelementptr inbounds %struct.VhostUserGPU, ptr %8, i32 0, i32 0
  %conf = getelementptr inbounds %struct.VirtIOGPUBase, ptr %parent_obj, i32 0, i32 2
  %flags = getelementptr inbounds %struct.virtio_gpu_base_conf, ptr %conf, i32 0, i32 1
  %9 = load i32, ptr %flags, align 4
  %or = or i32 %9, 16
  store i32 %or, ptr %flags, align 4
  %10 = load ptr, ptr %g, align 8
  %vhost4 = getelementptr inbounds %struct.VhostUserGPU, ptr %10, i32 0, i32 1
  %11 = load ptr, ptr %vhost4, align 16
  %dev5 = getelementptr inbounds %struct.VhostUserBackend, ptr %11, i32 0, i32 4
  %features = getelementptr inbounds %struct.vhost_dev, ptr %dev5, i32 0, i32 13
  %12 = load i64, ptr %features, align 8
  %call6 = call zeroext i1 @virtio_has_feature(i64 noundef %12, i32 noundef 0)
  br i1 %call6, label %if.then7, label %if.end12

if.then7:                                         ; preds = %if.end
  %13 = load ptr, ptr %g, align 8
  %parent_obj8 = getelementptr inbounds %struct.VhostUserGPU, ptr %13, i32 0, i32 0
  %conf9 = getelementptr inbounds %struct.VirtIOGPUBase, ptr %parent_obj8, i32 0, i32 2
  %flags10 = getelementptr inbounds %struct.virtio_gpu_base_conf, ptr %conf9, i32 0, i32 1
  %14 = load i32, ptr %flags10, align 4
  %or11 = or i32 %14, 2
  store i32 %or11, ptr %flags10, align 4
  br label %if.end12

if.end12:                                         ; preds = %if.then7, %if.end
  %15 = load ptr, ptr %g, align 8
  %vhost13 = getelementptr inbounds %struct.VhostUserGPU, ptr %15, i32 0, i32 1
  %16 = load ptr, ptr %vhost13, align 16
  %dev14 = getelementptr inbounds %struct.VhostUserBackend, ptr %16, i32 0, i32 4
  %features15 = getelementptr inbounds %struct.vhost_dev, ptr %dev14, i32 0, i32 13
  %17 = load i64, ptr %features15, align 8
  %call16 = call zeroext i1 @virtio_has_feature(i64 noundef %17, i32 noundef 1)
  br i1 %call16, label %if.then17, label %if.else

if.then17:                                        ; preds = %if.end12
  %18 = load ptr, ptr %g, align 8
  %parent_obj18 = getelementptr inbounds %struct.VhostUserGPU, ptr %18, i32 0, i32 0
  %conf19 = getelementptr inbounds %struct.VirtIOGPUBase, ptr %parent_obj18, i32 0, i32 2
  %flags20 = getelementptr inbounds %struct.virtio_gpu_base_conf, ptr %conf19, i32 0, i32 1
  %19 = load i32, ptr %flags20, align 4
  %or21 = or i32 %19, 8
  store i32 %or21, ptr %flags20, align 4
  br label %if.end25

if.else:                                          ; preds = %if.end12
  call void (ptr, ...) @error_report(ptr noundef @.str.18)
  %20 = load ptr, ptr %g, align 8
  %parent_obj22 = getelementptr inbounds %struct.VhostUserGPU, ptr %20, i32 0, i32 0
  %conf23 = getelementptr inbounds %struct.VirtIOGPUBase, ptr %parent_obj22, i32 0, i32 2
  %flags24 = getelementptr inbounds %struct.virtio_gpu_base_conf, ptr %conf23, i32 0, i32 1
  %21 = load i32, ptr %flags24, align 4
  %and = and i32 %21, -9
  store i32 %and, ptr %flags24, align 4
  br label %if.end25

if.end25:                                         ; preds = %if.else, %if.then17
  %22 = load ptr, ptr %qdev.addr, align 8
  %23 = load ptr, ptr %errp.addr, align 8
  %call26 = call zeroext i1 @virtio_gpu_base_device_realize(ptr noundef %22, ptr noundef null, ptr noundef null, ptr noundef %23)
  br i1 %call26, label %if.end28, label %if.then27

if.then27:                                        ; preds = %if.end25
  br label %return

if.end28:                                         ; preds = %if.end25
  %24 = load ptr, ptr %g, align 8
  %vhost_gpu_fd = getelementptr inbounds %struct.VhostUserGPU, ptr %24, i32 0, i32 2
  store i32 -1, ptr %vhost_gpu_fd, align 8
  br label %return

return:                                           ; preds = %if.end28, %if.then27, %if.then
  ret void
}