; Function Attrs: nounwind sspstrong uwtable
define internal void @vhost_user_gpu_device_realize(ptr noundef %qdev, ptr noundef %errp) #0 {
entry:
  %call.i = tail call ptr @object_dynamic_cast_assert(ptr noundef %qdev, ptr noundef nonnull @.str, ptr noundef nonnull @.str.4, i32 noundef 39, ptr noundef nonnull @__func__.VHOST_USER_GPU) #7
  %call.i12 = tail call ptr @object_dynamic_cast_assert(ptr noundef %call.i, ptr noundef nonnull @.str.8, ptr noundef nonnull @.str.9, i32 noundef 85, ptr noundef nonnull @__func__.VIRTIO_DEVICE) #7
  %vhost = getelementptr inbounds nuw i8, ptr %call.i, i64 2928
  %0 = load ptr, ptr %vhost, align 16
  %dev = getelementptr inbounds nuw i8, ptr %0, i64 128
  tail call void @vhost_dev_set_config_notifier(ptr noundef nonnull %dev, ptr noundef nonnull @config_ops) #7
  %1 = load ptr, ptr %vhost, align 16
  %call3 = tail call i32 @vhost_user_backend_dev_init(ptr noundef %1, ptr noundef %call.i12, i32 noundef 2, ptr noundef %errp) #7
  %cmp = icmp slt i32 %call3, 0
  br i1 %cmp, label %return, label %if.end

if.end:                                           ; preds = %entry
  %flags = getelementptr inbounds nuw i8, ptr %call.i, i64 532
  %2 = load i32, ptr %flags, align 4
  %or = or i32 %2, 16
  store i32 %or, ptr %flags, align 4
  %3 = load ptr, ptr %vhost, align 16
  %features = getelementptr inbounds nuw i8, ptr %3, i64 584
  %4 = load i64, ptr %features, align 8
  %and.i = and i64 %4, 1
  %tobool.i.not = icmp eq i64 %and.i, 0
  br i1 %tobool.i.not, label %if.end12, label %if.then7

if.then7:                                         ; preds = %if.end
  %or11 = or i32 %2, 18
  store i32 %or11, ptr %flags, align 4
  %.pre = load i64, ptr %features, align 8
  br label %if.end12

if.end12:                                         ; preds = %if.then7, %if.end
  %5 = phi i32 [ %or11, %if.then7 ], [ %or, %if.end ]
  %6 = phi i64 [ %.pre, %if.then7 ], [ %4, %if.end ]
  %and.i13 = and i64 %6, 2
  %tobool.i14.not = icmp eq i64 %and.i13, 0
  br i1 %tobool.i14.not, label %if.else, label %if.then17

if.then17:                                        ; preds = %if.end12
  %or21 = or i32 %5, 8
  br label %if.end25

if.else:                                          ; preds = %if.end12
  tail call void (ptr, ...) @error_report(ptr noundef nonnull @.str.18) #7
  %7 = load i32, ptr %flags, align 4
  %and = and i32 %7, -9
  br label %if.end25

if.end25:                                         ; preds = %if.else, %if.then17
  %storemerge = phi i32 [ %and, %if.else ], [ %or21, %if.then17 ]
  store i32 %storemerge, ptr %flags, align 4
  %call26 = tail call zeroext i1 @virtio_gpu_base_device_realize(ptr noundef %qdev, ptr noundef null, ptr noundef null, ptr noundef %errp) #7
  br i1 %call26, label %if.end28, label %return

if.end28:                                         ; preds = %if.end25
  %vhost_gpu_fd = getelementptr inbounds nuw i8, ptr %call.i, i64 2936
  store i32 -1, ptr %vhost_gpu_fd, align 8
  br label %return

return:                                           ; preds = %if.end25, %entry, %if.end28
  ret void
}